target datalayout = "e-m:e-p270:32:32-p271:32:32-p272:64:64-i64:64-i128:128-f80:128-n8:16:32:64-S128"
target triple = "x86_64-pc-linux-gnu"

%struct.lzma_filter = type { i64, ptr }

; Function Attrs: nounwind uwtable
define dso_local void @lzma_filters_free(ptr noundef %0, ptr noundef %1) #0 {
  %3 = alloca ptr, align 8
  %4 = alloca ptr, align 8
  %5 = alloca i64, align 8
  %6 = alloca i32, align 4
  store ptr %0, ptr %3, align 8, !tbaa !4
  store ptr %1, ptr %4, align 8, !tbaa !4
  %7 = load ptr, ptr %3, align 8, !tbaa !4
  %8 = icmp eq ptr %7, null
  br i1 %8, label %9, label %10

9:                                                ; preds = %2
  br label %43

10:                                               ; preds = %2
  call void @llvm.lifetime.start.p0(i64 8, ptr %5) #4
  store i64 0, ptr %5, align 8, !tbaa !8
  br label %11

11:                                               ; preds = %38, %10
  %12 = load ptr, ptr %3, align 8, !tbaa !4
  %13 = load i64, ptr %5, align 8, !tbaa !8
  %14 = getelementptr inbounds nuw %struct.lzma_filter, ptr %12, i64 %13
  %15 = getelementptr inbounds nuw %struct.lzma_filter, ptr %14, i32 0, i32 0
  %16 = load i64, ptr %15, align 8, !tbaa !10
  %17 = icmp ne i64 %16, -1
  br i1 %17, label %19, label %18

18:                                               ; preds = %11
  store i32 2, ptr %6, align 4
  br label %41

19:                                               ; preds = %11
  %20 = load i64, ptr %5, align 8, !tbaa !8
  %21 = icmp eq i64 %20, 4
  br i1 %21, label %22, label %23

22:                                               ; preds = %19
  store i32 2, ptr %6, align 4
  br label %41

23:                                               ; preds = %19
  %24 = load ptr, ptr %3, align 8, !tbaa !4
  %25 = load i64, ptr %5, align 8, !tbaa !8
  %26 = getelementptr inbounds nuw %struct.lzma_filter, ptr %24, i64 %25
  %27 = getelementptr inbounds nuw %struct.lzma_filter, ptr %26, i32 0, i32 1
  %28 = load ptr, ptr %27, align 8, !tbaa !14
  %29 = load ptr, ptr %4, align 8, !tbaa !4
  call void @lzma_free(ptr noundef %28, ptr noundef %29)
  %30 = load ptr, ptr %3, align 8, !tbaa !4
  %31 = load i64, ptr %5, align 8, !tbaa !8
  %32 = getelementptr inbounds nuw %struct.lzma_filter, ptr %30, i64 %31
  %33 = getelementptr inbounds nuw %struct.lzma_filter, ptr %32, i32 0, i32 1
  store ptr null, ptr %33, align 8, !tbaa !14
  %34 = load ptr, ptr %3, align 8, !tbaa !4
  %35 = load i64, ptr %5, align 8, !tbaa !8
  %36 = getelementptr inbounds nuw %struct.lzma_filter, ptr %34, i64 %35
  %37 = getelementptr inbounds nuw %struct.lzma_filter, ptr %36, i32 0, i32 0
  store i64 -1, ptr %37, align 8, !tbaa !10
  br label %38

38:                                               ; preds = %23
  %39 = load i64, ptr %5, align 8, !tbaa !8
  %40 = add i64 %39, 1
  store i64 %40, ptr %5, align 8, !tbaa !8
  br label %11, !llvm.loop !23

41:                                               ; preds = %22, %18
  call void @llvm.lifetime.end.p0(i64 8, ptr %5) #4
  br label %42

42:                                               ; preds = %41
  br label %43

43:                                               ; preds = %42, %9
  ret void
}