; Function Attrs: nounwind uwtable
define dso_local void @lzma_filters_free(ptr noundef %0, ptr noundef %1) local_unnamed_addr #0 {
  %3 = icmp eq ptr %0, null
  br i1 %3, label %.loopexit, label %.preheader

.preheader:                                       ; preds = %2
  %4 = load i64, ptr %0, align 8, !tbaa !4
  %.not12 = icmp eq i64 %4, -1
  br i1 %.not12, label %.loopexit, label %.lr.ph

.lr.ph:                                           ; preds = %.preheader, %.lr.ph
  %.013 = phi i64 [ %8, %.lr.ph ], [ 0, %.preheader ]
  %5 = getelementptr inbounds nuw %struct.lzma_filter, ptr %0, i64 %.013
  %6 = getelementptr inbounds nuw i8, ptr %5, i64 8
  %7 = load ptr, ptr %6, align 8, !tbaa !10
  tail call void @lzma_free(ptr noundef %7, ptr noundef %1) #5
  store ptr null, ptr %6, align 8, !tbaa !10
  store i64 -1, ptr %5, align 8, !tbaa !4
  %8 = add nuw nsw i64 %.013, 1
  %9 = getelementptr inbounds nuw %struct.lzma_filter, ptr %0, i64 %8
  %10 = load i64, ptr %9, align 8, !tbaa !4
  %.not = icmp eq i64 %10, -1
  %11 = icmp eq i64 %8, 4
  %or.cond = or i1 %11, %.not
  br i1 %or.cond, label %.loopexit, label %.lr.ph, !llvm.loop !19

.loopexit:                                        ; preds = %.lr.ph, %.preheader, %2
  ret void
}